target datalayout = "e-m:e-p270:32:32-p271:32:32-p272:64:64-i64:64-i128:128-f80:128-n8:16:32:64-S128"
target triple = "x86_64-unknown-linux-gnu"

@_ZZN6icu_7512_GLOBAL__N_113versionFilterEiPvE4none = internal constant [4 x i8] zeroinitializer, align 1

; Function Attrs: mustprogress uwtable
define internal noundef signext i8 @_ZN6icu_7512_GLOBAL__N_113versionFilterEiPv(i32 noundef %ch, ptr noundef %context) #1 {
entry:
  %ch.addr = alloca i32, align 4
  %context.addr = alloca ptr, align 8
  %v = alloca [4 x i8], align 1
  %version = alloca ptr, align 8
  store i32 %ch, ptr %ch.addr, align 4
  store ptr %context, ptr %context.addr, align 8
  %0 = load i32, ptr %ch.addr, align 4
  %arraydecay = getelementptr inbounds [4 x i8], ptr %v, i64 0, i64 0
  call void @u_charAge_75(i32 noundef %0, ptr noundef %arraydecay)
  %1 = load ptr, ptr %context.addr, align 8
  store ptr %1, ptr %version, align 8
  %call = call i32 @memcmp(ptr noundef %v, ptr noundef @_ZZN6icu_7512_GLOBAL__N_113versionFilterEiPvE4none, i64 noundef 4) #7
  %cmp = icmp sgt i32 %call, 0
  br i1 %cmp, label %land.rhs, label %land.end

land.rhs:                                         ; preds = %entry
  %2 = load ptr, ptr %version, align 8
  %call1 = call i32 @memcmp(ptr noundef %v, ptr noundef %2, i64 noundef 4) #7
  %cmp2 = icmp sle i32 %call1, 0
  br label %land.end

land.end:                                         ; preds = %land.rhs, %entry
  %3 = phi i1 [ false, %entry ], [ %cmp2, %land.rhs ]
  %conv = zext i1 %3 to i8
  ret i8 %conv
}