; Function Attrs: mustprogress uwtable
define internal noundef signext i8 @_ZN6icu_7512_GLOBAL__N_113versionFilterEiPv(i32 noundef %ch, ptr nocapture noundef readonly %context) #1 {
entry:
  %v = alloca [4 x i8], align 1
  call void @u_charAge_75(i32 noundef %ch, ptr noundef nonnull %v)
  %call = call i32 @memcmp(ptr noundef nonnull dereferenceable(4) %v, ptr noundef nonnull dereferenceable(4) @_ZZN6icu_7512_GLOBAL__N_113versionFilterEiPvE4none, i64 noundef 4) #18
  %cmp = icmp sgt i32 %call, 0
  br i1 %cmp, label %land.rhs, label %land.end

land.rhs:                                         ; preds = %entry
  %call1 = call i32 @memcmp(ptr noundef nonnull dereferenceable(4) %v, ptr noundef nonnull dereferenceable(4) %context, i64 noundef 4) #18
  %cmp2 = icmp slt i32 %call1, 1
  %0 = zext i1 %cmp2 to i8
  br label %land.end

land.end:                                         ; preds = %land.rhs, %entry
  %conv = phi i8 [ 0, %entry ], [ %0, %land.rhs ]
  ret i8 %conv
}